; ModuleID = 'source-C-CXX/41/91.c'
source_filename = "source-C-CXX/41/91.c"
target datalayout = "e-m:e-p270:32:32-p271:32:32-p272:64:64-i64:64-f80:128-n8:16:32:64-S128"
target triple = "x86_64-pc-linux-gnu"

@.str = private unnamed_addr constant [3 x i8] c"%d\00", align 1
@.str.1 = private unnamed_addr constant [4 x i8] c" %d\00", align 1

; Function Attrs: nofree nounwind sspstrong uwtable
define dso_local i32 @main() local_unnamed_addr #0 {
  %1 = alloca [100000 x i32], align 16
  %2 = alloca i32, align 4
  %3 = alloca i32, align 4
  %4 = bitcast [100000 x i32]* %1 to i8*
  call void @llvm.lifetime.start.p0i8(i64 400000, i8* nonnull %4) #3
  %5 = bitcast i32* %2 to i8*
  call void @llvm.lifetime.start.p0i8(i64 4, i8* nonnull %5) #3
  %6 = bitcast i32* %3 to i8*
  call void @llvm.lifetime.start.p0i8(i64 4, i8* nonnull %6) #3
  %7 = call i32 (i8*, ...) @__isoc99_scanf(i8* getelementptr inbounds ([3 x i8], [3 x i8]* @.str, i64 0, i64 0), i32* nonnull %2)
  %8 = load i32, i32* %2, align 4, !tbaa !5
  %9 = icmp sgt i32 %8, 0
  br i1 %9, label %10, label %18

10:                                               ; preds = %0, %10
  %11 = phi i64 [ %14, %10 ], [ 0, %0 ]
  %12 = getelementptr inbounds [100000 x i32], [100000 x i32]* %1, i64 0, i64 %11
  %13 = call i32 (i8*, ...) @__isoc99_scanf(i8* getelementptr inbounds ([3 x i8], [3 x i8]* @.str, i64 0, i64 0), i32* nonnull %12)
  %14 = add nuw nsw i64 %11, 1
  %15 = load i32, i32* %2, align 4, !tbaa !5
  %16 = sext i32 %15 to i64
  %17 = icmp slt i64 %14, %16
  br i1 %17, label %10, label %18, !llvm.loop !9

18:                                               ; preds = %10, %0
  %19 = call i32 (i8*, ...) @__isoc99_scanf(i8* getelementptr inbounds ([3 x i8], [3 x i8]* @.str, i64 0, i64 0), i32* nonnull %3)
  %20 = load i32, i32* %2, align 4, !tbaa !5
  %21 = load i32, i32* %3, align 4
  %22 = icmp sgt i32 %20, 0
  br i1 %22, label %23, label %37

23:                                               ; preds = %18
  %24 = zext i32 %20 to i64
  br label %25

25:                                               ; preds = %23, %34
  %26 = phi i64 [ 0, %23 ], [ %35, %34 ]
  %27 = getelementptr inbounds [100000 x i32], [100000 x i32]* %1, i64 0, i64 %26
  %28 = load i32, i32* %27, align 4, !tbaa !5
  %29 = icmp eq i32 %28, %21
  br i1 %29, label %34, label %30

30:                                               ; preds = %25
  %31 = trunc i64 %26 to i32
  %32 = call i32 (i8*, ...) @printf(i8* nonnull dereferenceable(1) getelementptr inbounds ([3 x i8], [3 x i8]* @.str, i64 0, i64 0), i32 %28)
  %33 = load i32, i32* %2, align 4, !tbaa !5
  br label %37

34:                                               ; preds = %25
  %35 = add nuw nsw i64 %26, 1
  %36 = icmp eq i64 %35, %24
  br i1 %36, label %37, label %25, !llvm.loop !11

37:                                               ; preds = %34, %18, %30
  %38 = phi i32 [ %33, %30 ], [ %20, %18 ], [ %20, %34 ]
  %39 = phi i32 [ %31, %30 ], [ 0, %18 ], [ %20, %34 ]
  %40 = add nsw i32 %38, -1
  %41 = icmp slt i32 %39, %40
  br i1 %41, label %42, label %60

42:                                               ; preds = %37
  %43 = zext i32 %39 to i64
  br label %44

44:                                               ; preds = %42, %55
  %45 = phi i32 [ %38, %42 ], [ %56, %55 ]
  %46 = phi i64 [ %43, %42 ], [ %47, %55 ]
  %47 = add nuw nsw i64 %46, 1
  %48 = getelementptr inbounds [100000 x i32], [100000 x i32]* %1, i64 0, i64 %47
  %49 = load i32, i32* %48, align 4, !tbaa !5
  %50 = load i32, i32* %3, align 4, !tbaa !5
  %51 = icmp eq i32 %49, %50
  br i1 %51, label %55, label %52

52:                                               ; preds = %44
  %53 = call i32 (i8*, ...) @printf(i8* nonnull dereferenceable(1) getelementptr inbounds ([4 x i8], [4 x i8]* @.str.1, i64 0, i64 0), i32 %49)
  %54 = load i32, i32* %2, align 4, !tbaa !5
  br label %55

55:                                               ; preds = %44, %52
  %56 = phi i32 [ %45, %44 ], [ %54, %52 ]
  %57 = add nsw i32 %56, -1
  %58 = trunc i64 %47 to i32
  %59 = icmp sgt i32 %57, %58
  br i1 %59, label %44, label %60, !llvm.loop !12

60:                                               ; preds = %55, %37
  call void @llvm.lifetime.end.p0i8(i64 4, i8* nonnull %6) #3
  call void @llvm.lifetime.end.p0i8(i64 4, i8* nonnull %5) #3
  call void @llvm.lifetime.end.p0i8(i64 400000, i8* nonnull %4) #3
  ret i32 0
}

; Function Attrs: argmemonly mustprogress nofree nosync nounwind willreturn
declare void @llvm.lifetime.start.p0i8(i64 immarg, i8* nocapture) #1

; Function Attrs: nofree nounwind
declare noundef i32 @__isoc99_scanf(i8* nocapture noundef readonly, ...) local_unnamed_addr #2

; Function Attrs: nofree nounwind
declare noundef i32 @printf(i8* nocapture noundef readonly, ...) local_unnamed_addr #2

; Function Attrs: argmemonly mustprogress nofree nosync nounwind willreturn
declare void @llvm.lifetime.end.p0i8(i64 immarg, i8* nocapture) #1


!llvm.module.flags = !{!0, !1, !2, !3}
!llvm.ident = !{!4}

!0 = !{i32 1, !"wchar_size", i32 4}
!1 = !{i32 7, !"PIC Level", i32 2}
!2 = !{i32 7, !"PIE Level", i32 2}
!3 = !{i32 7, !"uwtable", i32 1}
!4 = !{!"clang version 13.0.0"}
!5 = !{!6, !6, i64 0}
!6 = !{!"int", !7, i64 0}
!7 = !{!"omnipotent char", !8, i64 0}
!8 = !{!"Simple C/C++ TBAA"}
!9 = distinct !{!9, !10}
!10 = !{!"llvm.loop.mustprogress"}
!11 = distinct !{!11, !10}
!12 = distinct !{!12, !10}
